target datalayout = "e-m:e-p270:32:32-p271:32:32-p272:64:64-i64:64-i128:128-f80:128-n8:16:32:64-S128"
target triple = "x86_64-pc-linux-gnu"

%struct.SDL_Renderer = type { ptr, ptr, ptr, ptr, ptr, ptr, ptr, ptr, ptr, ptr, ptr, ptr, ptr, ptr, ptr, ptr, ptr, ptr, ptr, ptr, ptr, ptr, ptr, ptr, ptr, ptr, ptr, ptr, ptr, ptr, i32, i8, ptr, i8, i8, i8, i64, i64, ptr, %struct.SDL_RenderViewState, %struct.SDL_FPoint, i32, i32, ptr, ptr, ptr, i32, float, float, float, float, %struct.SDL_FColor, i32, i32, i32, ptr, ptr, ptr, ptr, i32, %struct.SDL_FColor, float, %struct.SDL_Rect, %struct.SDL_Rect, i8, i8, i8, i8, ptr, i64, i64, i8, ptr, ptr, i32, ptr, i8, ptr, ptr }
%struct.SDL_RenderViewState = type { i32, i32, %struct.SDL_Rect, %struct.SDL_Rect, %struct.SDL_Rect, %struct.SDL_Rect, i8, %struct.SDL_FPoint, i32, i32, i32, %struct.SDL_FRect, %struct.SDL_FRect, %struct.SDL_FPoint, %struct.SDL_FPoint, %struct.SDL_FPoint }
%struct.SDL_FRect = type { float, float, float, float }
%struct.SDL_FPoint = type { float, float }
%struct.SDL_FColor = type { float, float, float, float }
%struct.SDL_Rect = type { i32, i32, i32, i32 }

; Function Attrs: nounwind uwtable
define internal zeroext i1 @SDL_RenderVectorFromWindow(ptr noundef %0, float noundef %1, float noundef %2, ptr noundef %3, ptr noundef %4) #0 {
  %6 = alloca ptr, align 8
  %7 = alloca float, align 4
  %8 = alloca float, align 4
  %9 = alloca ptr, align 8
  %10 = alloca ptr, align 8
  %11 = alloca ptr, align 8
  %12 = alloca ptr, align 8
  %13 = alloca ptr, align 8
  store ptr %0, ptr %6, align 8
  store float %1, ptr %7, align 4
  store float %2, ptr %8, align 4
  store ptr %3, ptr %9, align 8
  store ptr %4, ptr %10, align 8
  %14 = load ptr, ptr %6, align 8
  %15 = getelementptr inbounds nuw %struct.SDL_Renderer, ptr %14, i32 0, i32 40
  %16 = getelementptr inbounds nuw %struct.SDL_FPoint, ptr %15, i32 0, i32 0
  %17 = load float, ptr %16, align 8
  %18 = load float, ptr %7, align 4
  %19 = fmul float %18, %17
  store float %19, ptr %7, align 4
  %20 = load ptr, ptr %6, align 8
  %21 = getelementptr inbounds nuw %struct.SDL_Renderer, ptr %20, i32 0, i32 40
  %22 = getelementptr inbounds nuw %struct.SDL_FPoint, ptr %21, i32 0, i32 1
  %23 = load float, ptr %22, align 4
  %24 = load float, ptr %8, align 4
  %25 = fmul float %24, %23
  store float %25, ptr %8, align 4
  call void @llvm.lifetime.start.p0(i64 8, ptr %11) #10
  %26 = load ptr, ptr %6, align 8
  %27 = getelementptr inbounds nuw %struct.SDL_Renderer, ptr %26, i32 0, i32 39
  store ptr %27, ptr %11, align 8
  %28 = load ptr, ptr %11, align 8
  %29 = getelementptr inbounds nuw %struct.SDL_RenderViewState, ptr %28, i32 0, i32 8
  %30 = load i32, ptr %29, align 4
  %31 = icmp ne i32 %30, 0
  br i1 %31, label %32, label %55

32:                                               ; preds = %5
  call void @llvm.lifetime.start.p0(i64 8, ptr %12) #10
  %33 = load ptr, ptr %11, align 8
  %34 = getelementptr inbounds nuw %struct.SDL_RenderViewState, ptr %33, i32 0, i32 11
  store ptr %34, ptr %12, align 8
  call void @llvm.lifetime.start.p0(i64 8, ptr %13) #10
  %35 = load ptr, ptr %11, align 8
  %36 = getelementptr inbounds nuw %struct.SDL_RenderViewState, ptr %35, i32 0, i32 12
  store ptr %36, ptr %13, align 8
  %37 = load float, ptr %7, align 4
  %38 = load ptr, ptr %12, align 8
  %39 = getelementptr inbounds nuw %struct.SDL_FRect, ptr %38, i32 0, i32 2
  %40 = load float, ptr %39, align 4
  %41 = fmul float %37, %40
  %42 = load ptr, ptr %13, align 8
  %43 = getelementptr inbounds nuw %struct.SDL_FRect, ptr %42, i32 0, i32 2
  %44 = load float, ptr %43, align 4
  %45 = fdiv float %41, %44
  store float %45, ptr %7, align 4
  %46 = load float, ptr %8, align 4
  %47 = load ptr, ptr %12, align 8
  %48 = getelementptr inbounds nuw %struct.SDL_FRect, ptr %47, i32 0, i32 3
  %49 = load float, ptr %48, align 4
  %50 = fmul float %46, %49
  %51 = load ptr, ptr %13, align 8
  %52 = getelementptr inbounds nuw %struct.SDL_FRect, ptr %51, i32 0, i32 3
  %53 = load float, ptr %52, align 4
  %54 = fdiv float %50, %53
  store float %54, ptr %8, align 4
  call void @llvm.lifetime.end.p0(i64 8, ptr %13) #10
  call void @llvm.lifetime.end.p0(i64 8, ptr %12) #10
  br label %55

55:                                               ; preds = %32, %5
  %56 = load ptr, ptr %11, align 8
  %57 = getelementptr inbounds nuw %struct.SDL_RenderViewState, ptr %56, i32 0, i32 7
  %58 = getelementptr inbounds nuw %struct.SDL_FPoint, ptr %57, i32 0, i32 0
  %59 = load float, ptr %58, align 4
  %60 = load float, ptr %7, align 4
  %61 = fdiv float %60, %59
  store float %61, ptr %7, align 4
  %62 = load ptr, ptr %11, align 8
  %63 = getelementptr inbounds nuw %struct.SDL_RenderViewState, ptr %62, i32 0, i32 7
  %64 = getelementptr inbounds nuw %struct.SDL_FPoint, ptr %63, i32 0, i32 1
  %65 = load float, ptr %64, align 4
  %66 = load float, ptr %8, align 4
  %67 = fdiv float %66, %65
  store float %67, ptr %8, align 4
  %68 = load float, ptr %7, align 4
  %69 = load ptr, ptr %9, align 8
  store float %68, ptr %69, align 4
  %70 = load float, ptr %8, align 4
  %71 = load ptr, ptr %10, align 8
  store float %70, ptr %71, align 4
  call void @llvm.lifetime.end.p0(i64 8, ptr %11) #10
  ret i1 true
}