; Function Attrs: mustprogress nofree norecurse nosync nounwind willreturn memory(argmem: readwrite) uwtable
define internal fastcc void @SDL_RenderVectorFromWindow(ptr noundef readonly captures(none) %0, float noundef %1, float noundef %2, ptr noundef writeonly captures(none) initializes((0, 4)) %3, ptr noundef writeonly captures(none) initializes((0, 4)) %4) unnamed_addr #10 {
  %6 = getelementptr inbounds nuw i8, ptr %0, i64 440
  %7 = load float, ptr %6, align 8
  %8 = fmul float %1, %7
  %9 = getelementptr inbounds nuw i8, ptr %0, i64 444
  %10 = load float, ptr %9, align 4
  %11 = fmul float %2, %10
  %12 = getelementptr inbounds nuw i8, ptr %0, i64 372
  %13 = load i32, ptr %12, align 4
  %.not = icmp eq i32 %13, 0
  br i1 %.not, label %27, label %14

14:                                               ; preds = %5
  %15 = getelementptr inbounds nuw i8, ptr %0, i64 392
  %16 = load float, ptr %15, align 4
  %17 = fmul float %8, %16
  %18 = getelementptr inbounds nuw i8, ptr %0, i64 408
  %19 = load float, ptr %18, align 4
  %20 = fdiv float %17, %19
  %21 = getelementptr inbounds nuw i8, ptr %0, i64 396
  %22 = load float, ptr %21, align 4
  %23 = fmul float %11, %22
  %24 = getelementptr inbounds nuw i8, ptr %0, i64 412
  %25 = load float, ptr %24, align 4
  %26 = fdiv float %23, %25
  br label %27

27:                                               ; preds = %14, %5
  %.022 = phi float [ %26, %14 ], [ %11, %5 ]
  %.0 = phi float [ %20, %14 ], [ %8, %5 ]
  %28 = getelementptr inbounds nuw i8, ptr %0, i64 364
  %29 = load float, ptr %28, align 4
  %30 = fdiv float %.0, %29
  %31 = getelementptr inbounds nuw i8, ptr %0, i64 368
  %32 = load float, ptr %31, align 4
  %33 = fdiv float %.022, %32
  store float %30, ptr %3, align 4
  store float %33, ptr %4, align 4
  ret void
}